---
triple:          'arm64-apple-darwin'
binary-path:     main
relocations:
  - { offsetInCU: 0x26, offset: 0x26, size: 0x8, addend: 0x0, symName: __ZN11PixelBufferC2Eii, symObjAddr: 0x0, symBinAddr: 0x10000217C, symSize: 0x84 }
  - { offsetInCU: 0x6B8, offset: 0x6B8, size: 0x8, addend: 0x0, symName: __ZN11PixelBufferC2Eii, symObjAddr: 0x0, symBinAddr: 0x10000217C, symSize: 0x84 }
  - { offsetInCU: 0x6FE, offset: 0x6FE, size: 0x8, addend: 0x0, symName: __ZN11PixelBufferC1Eii, symObjAddr: 0x84, symBinAddr: 0x100002200, symSize: 0x3C }
  - { offsetInCU: 0x744, offset: 0x744, size: 0x8, addend: 0x0, symName: __ZN11PixelBufferD2Ev, symObjAddr: 0xC0, symBinAddr: 0x10000223C, symSize: 0x50 }
  - { offsetInCU: 0x76E, offset: 0x76E, size: 0x8, addend: 0x0, symName: __ZN11PixelBufferD1Ev, symObjAddr: 0x110, symBinAddr: 0x10000228C, symSize: 0x2C }
  - { offsetInCU: 0x798, offset: 0x798, size: 0x8, addend: 0x0, symName: __ZN11PixelBuffer8setPixelEiij, symObjAddr: 0x13C, symBinAddr: 0x1000022B8, symSize: 0xAC }
  - { offsetInCU: 0x7E8, offset: 0x7E8, size: 0x8, addend: 0x0, symName: __ZNK11PixelBuffer8getPixelEii, symObjAddr: 0x1E8, symBinAddr: 0x100002364, symSize: 0xB4 }
  - { offsetInCU: 0x82A, offset: 0x82A, size: 0x8, addend: 0x0, symName: __ZNK11PixelBuffer12getPixelDataEv, symObjAddr: 0x29C, symBinAddr: 0x100002418, symSize: 0x18 }
  - { offsetInCU: 0x850, offset: 0x850, size: 0x8, addend: 0x0, symName: __ZNK11PixelBuffer8getWidthEv, symObjAddr: 0x2B4, symBinAddr: 0x100002430, symSize: 0x18 }
  - { offsetInCU: 0x876, offset: 0x876, size: 0x8, addend: 0x0, symName: __ZNK11PixelBuffer9getHeightEv, symObjAddr: 0x2CC, symBinAddr: 0x100002448, symSize: 0x18 }
  - { offsetInCU: 0x89C, offset: 0x89C, size: 0x8, addend: 0x0, symName: __ZN11PixelBuffer5clearEj, symObjAddr: 0x2E4, symBinAddr: 0x100002460, symSize: 0x48 }
  - { offsetInCU: 0x2DC8, offset: 0x36A2, size: 0x8, addend: 0x0, symName: __ZNSt3__124__put_character_sequenceB7v160006IcNS_11char_traitsIcEEEERNS_13basic_ostreamIT_T0_EES7_PKS4_m, symObjAddr: 0x600, symBinAddr: 0x100002AA8, symSize: 0x1F4 }
  - { offsetInCU: 0x5D49, offset: 0x6623, size: 0x8, addend: 0x0, symName: __ZNSt3__1lsB7v160006INS_11char_traitsIcEEEERNS_13basic_ostreamIcT_EES6_PKc, symObjAddr: 0x1C8, symBinAddr: 0x100002670, symSize: 0x48 }
  - { offsetInCU: 0x5D8F, offset: 0x6669, size: 0x8, addend: 0x0, symName: __ZNSt3__14endlB7v160006IcNS_11char_traitsIcEEEERNS_13basic_ostreamIT_T0_EES7_, symObjAddr: 0x23C, symBinAddr: 0x1000026E4, symSize: 0x58 }
  - { offsetInCU: 0x5DCF, offset: 0x66A9, size: 0x8, addend: 0x0, symName: __ZNSt3__116__pad_and_outputB7v160006IcNS_11char_traitsIcEEEENS_19ostreambuf_iteratorIT_T0_EES6_PKS4_S8_S8_RNS_8ios_baseES4_, symObjAddr: 0x858, symBinAddr: 0x100002D00, symSize: 0x248 }
  - { offsetInCU: 0x5E9E, offset: 0x6778, size: 0x8, addend: 0x0, symName: __ZNSt3__119__debug_db_insert_cB7v160006INS_12basic_stringIcNS_11char_traitsIcEENS_9allocatorIcEEEEEEvPT_, symObjAddr: 0xD14, symBinAddr: 0x1000031BC, symSize: 0x10 }
  - { offsetInCU: 0x5ECF, offset: 0x67A9, size: 0x8, addend: 0x0, symName: __ZNSt3__112__to_addressB7v160006IKcEEPT_S3_, symObjAddr: 0xDE0, symBinAddr: 0x100003288, symSize: 0x14 }
  - { offsetInCU: 0x5F04, offset: 0x67DE, size: 0x8, addend: 0x0, symName: __ZNSt3__130__libcpp_is_constant_evaluatedB7v160006Ev, symObjAddr: 0xF0C, symBinAddr: 0x1000033B4, symSize: 0xC }
  - { offsetInCU: 0x5F54, offset: 0x682E, size: 0x8, addend: 0x0, symName: __ZNSt3__19use_facetB7v160006INS_5ctypeIcEEEERKT_RKNS_6localeE, symObjAddr: 0x10C4, symBinAddr: 0x10000356C, symSize: 0x2C }
  - { offsetInCU: 0x6423, offset: 0x6CFD, size: 0x8, addend: 0x0, symName: __ZNSt3__118__constexpr_strlenB7v160006EPKc, symObjAddr: 0x115C, symBinAddr: 0x100003604, symSize: 0x24 }
  - { offsetInCU: 0x644F, offset: 0x6D29, size: 0x8, addend: 0x0, symName: __ZNSt3__122__make_exception_guardB7v160006INS_6vectorI6SphereNS_9allocatorIS2_EEE16__destroy_vectorEEENS_28__exception_guard_exceptionsIT_EES8_, symObjAddr: 0x1310, symBinAddr: 0x1000037B8, symSize: 0x40 }
  - { offsetInCU: 0x6484, offset: 0x6D5E, size: 0x8, addend: 0x0, symName: __ZNSt3__119__debug_db_insert_cB7v160006INS_6vectorI6SphereNS_9allocatorIS2_EEEEEEvPT_, symObjAddr: 0x1384, symBinAddr: 0x10000382C, symSize: 0x10 }
  - { offsetInCU: 0x64B5, offset: 0x6D8F, size: 0x8, addend: 0x0, symName: __ZNSt3__119__allocate_at_leastB7v160006INS_9allocatorI6SphereEEEENS_19__allocation_resultINS_16allocator_traitsIT_E7pointerEEERS6_m, symObjAddr: 0x1704, symBinAddr: 0x100003BAC, symSize: 0x40 }
  - { offsetInCU: 0x64F8, offset: 0x6DD2, size: 0x8, addend: 0x0, symName: __ZNSt3__13minB7v160006ImEERKT_S3_S3_, symObjAddr: 0x185C, symBinAddr: 0x100003D04, symSize: 0x2C }
  - { offsetInCU: 0x673C, offset: 0x7016, size: 0x8, addend: 0x0, symName: __ZNSt3__13minB7v160006ImNS_6__lessImmEEEERKT_S5_S5_T0_, symObjAddr: 0x18C0, symBinAddr: 0x100003D68, symSize: 0x54 }
  - { offsetInCU: 0x67D1, offset: 0x70AB, size: 0x8, addend: 0x0, symName: __ZNSt3__120__throw_length_errorB7v160006EPKc, symObjAddr: 0x1968, symBinAddr: 0x100003E10, symSize: 0x64 }
  - { offsetInCU: 0x67F9, offset: 0x70D3, size: 0x8, addend: 0x0, symName: __ZNSt3__117__libcpp_allocateB7v160006Emm, symObjAddr: 0x1B0C, symBinAddr: 0x100003FB4, symSize: 0x28 }
  - { offsetInCU: 0x6836, offset: 0x7110, size: 0x8, addend: 0x0, symName: __ZNSt3__121__libcpp_operator_newB7v160006IJmEEEPvDpT_, symObjAddr: 0x1B34, symBinAddr: 0x100003FDC, symSize: 0x24 }
  - { offsetInCU: 0x686F, offset: 0x7149, size: 0x8, addend: 0x0, symName: __ZNSt3__112__to_addressB7v160006I6SphereEEPT_S3_, symObjAddr: 0x1C50, symBinAddr: 0x1000040F8, symSize: 0x14 }
  - { offsetInCU: 0x68A4, offset: 0x717E, size: 0x8, addend: 0x0, symName: __ZNSt3__130__uninitialized_allocator_copyB7v160006INS_9allocatorI6SphereEEPS2_S4_S4_EET2_RT_T0_T1_S5_, symObjAddr: 0x1D00, symBinAddr: 0x1000041A8, symSize: 0xFC }
  - { offsetInCU: 0x6942, offset: 0x721C, size: 0x8, addend: 0x0, symName: __ZNSt3__122__make_exception_guardB7v160006INS_29_AllocatorDestroyRangeReverseINS_9allocatorI6SphereEEPS3_EEEENS_28__exception_guard_exceptionsIT_EES8_, symObjAddr: 0x1E74, symBinAddr: 0x10000431C, symSize: 0x4C }
  - { offsetInCU: 0x6978, offset: 0x7252, size: 0x8, addend: 0x0, symName: __ZNSt3__119__allocator_destroyB7v160006INS_9allocatorI6SphereEENS_16reverse_iteratorIPS2_EES6_EEvRT_T0_T1_, symObjAddr: 0x2100, symBinAddr: 0x1000045A8, symSize: 0x70 }
  - { offsetInCU: 0x69DB, offset: 0x72B5, size: 0x8, addend: 0x0, symName: __ZNSt3__1neB7v160006IP6SphereS2_EEbRKNS_16reverse_iteratorIT_EERKNS3_IT0_EE, symObjAddr: 0x21A4, symBinAddr: 0x10000464C, symSize: 0x48 }
  - { offsetInCU: 0x6A27, offset: 0x7301, size: 0x8, addend: 0x0, symName: __ZNSt3__112__to_addressB7v160006INS_16reverse_iteratorIP6SphereEEvEENS_5decayIDTclsr19__to_address_helperIT_EE6__callclsr3stdE7declvalIRKS6_EEEEE4typeES8_, symObjAddr: 0x2218, symBinAddr: 0x1000046C0, symSize: 0x24 }
  - { offsetInCU: 0x6A86, offset: 0x7360, size: 0x8, addend: 0x0, symName: __ZNSt3__118__debug_db_erase_cB7v160006INS_6vectorI6SphereNS_9allocatorIS2_EEEEEEvPT_, symObjAddr: 0x2520, symBinAddr: 0x1000049C8, symSize: 0x10 }
  - { offsetInCU: 0x6AB7, offset: 0x7391, size: 0x8, addend: 0x0, symName: __ZNSt3__119__libcpp_deallocateB7v160006EPvmm, symObjAddr: 0x26A0, symBinAddr: 0x100004B48, symSize: 0x30 }
  - { offsetInCU: 0x6AFF, offset: 0x73D9, size: 0x8, addend: 0x0, symName: __ZNSt3__127__do_deallocate_handle_sizeB7v160006IJEEEvPvmDpT_, symObjAddr: 0x26D0, symBinAddr: 0x100004B78, symSize: 0x28 }
  - { offsetInCU: 0x6B3D, offset: 0x7417, size: 0x8, addend: 0x0, symName: __ZNSt3__124__libcpp_operator_deleteB7v160006IJPvEEEvDpT_, symObjAddr: 0x26F8, symBinAddr: 0x100004BA0, symSize: 0x24 }
  - { offsetInCU: 0x6D18, offset: 0x75F2, size: 0x8, addend: 0x0, symName: __ZSt28__throw_bad_array_new_lengthB7v160006v, symObjAddr: 0x1AD8, symBinAddr: 0x100003F80, symSize: 0x34 }
  - { offsetInCU: 0x93F2, offset: 0x9CCC, size: 0x8, addend: 0x0, symName: __ZN8RendererC2EiiP12SDL_Renderer, symObjAddr: 0x0, symBinAddr: 0x1000024A8, symSize: 0x1C8 }
  - { offsetInCU: 0x9446, offset: 0x9D20, size: 0x8, addend: 0x0, symName: __ZNSt3__113basic_ostreamIcNS_11char_traitsIcEEElsB7v160006EPFRS3_S4_E, symObjAddr: 0x210, symBinAddr: 0x1000026B8, symSize: 0x2C }
  - { offsetInCU: 0x9479, offset: 0x9D53, size: 0x8, addend: 0x0, symName: __ZN8RendererC1EiiP12SDL_Renderer, symObjAddr: 0x2A0, symBinAddr: 0x100002748, symSize: 0x44 }
  - { offsetInCU: 0x94CD, offset: 0x9DA7, size: 0x8, addend: 0x0, symName: __ZN8RendererD2Ev, symObjAddr: 0x2E4, symBinAddr: 0x10000278C, symSize: 0xBC }
  - { offsetInCU: 0x94F7, offset: 0x9DD1, size: 0x8, addend: 0x0, symName: __ZN8RendererD1Ev, symObjAddr: 0x3A0, symBinAddr: 0x100002848, symSize: 0x2C }
  - { offsetInCU: 0x9521, offset: 0x9DFB, size: 0x8, addend: 0x0, symName: __ZN8Renderer11renderSceneENSt3__16vectorI6SphereNS0_9allocatorIS2_EEEE, symObjAddr: 0x3CC, symBinAddr: 0x100002874, symSize: 0xA0 }
  - { offsetInCU: 0x9556, offset: 0x9E30, size: 0x8, addend: 0x0, symName: __ZNSt3__16vectorI6SphereNS_9allocatorIS1_EEEC1ERKS4_, symObjAddr: 0x46C, symBinAddr: 0x100002914, symSize: 0x34 }
  - { offsetInCU: 0x9590, offset: 0x9E6A, size: 0x8, addend: 0x0, symName: __ZNSt3__16vectorI6SphereNS_9allocatorIS1_EEED1B7v160006Ev, symObjAddr: 0x4A0, symBinAddr: 0x100002948, symSize: 0x2C }
  - { offsetInCU: 0x95B9, offset: 0x9E93, size: 0x8, addend: 0x0, symName: __ZN8Renderer28updateTextureFromPixelBufferEv, symObjAddr: 0x4CC, symBinAddr: 0x100002974, symSize: 0x11C }
  - { offsetInCU: 0x95DF, offset: 0x9EB9, size: 0x8, addend: 0x0, symName: __ZNK8Renderer13getFrameCountEv, symObjAddr: 0x5E8, symBinAddr: 0x100002A90, symSize: 0x18 }
  - { offsetInCU: 0x9605, offset: 0x9EDF, size: 0x8, addend: 0x0, symName: __ZNSt3__111char_traitsIcE6lengthEPKc, symObjAddr: 0x7F4, symBinAddr: 0x100002C9C, symSize: 0x48 }
  - { offsetInCU: 0x9646, offset: 0x9F20, size: 0x8, addend: 0x0, symName: __ZNKSt3__113basic_ostreamIcNS_11char_traitsIcEEE6sentrycvbB7v160006Ev, symObjAddr: 0x83C, symBinAddr: 0x100002CE4, symSize: 0x1C }
  - { offsetInCU: 0x966B, offset: 0x9F45, size: 0x8, addend: 0x0, symName: __ZNSt3__119ostreambuf_iteratorIcNS_11char_traitsIcEEEC1B7v160006ERNS_13basic_ostreamIcS2_EE, symObjAddr: 0xAA0, symBinAddr: 0x100002F48, symSize: 0x34 }
  - { offsetInCU: 0x96A2, offset: 0x9F7C, size: 0x8, addend: 0x0, symName: __ZNKSt3__18ios_base5flagsB7v160006Ev, symObjAddr: 0xAD4, symBinAddr: 0x100002F7C, symSize: 0x18 }
  - { offsetInCU: 0x96C9, offset: 0x9FA3, size: 0x8, addend: 0x0, symName: __ZNKSt3__19basic_iosIcNS_11char_traitsIcEEE4fillB7v160006Ev, symObjAddr: 0xAEC, symBinAddr: 0x100002F94, symSize: 0x64 }
  - { offsetInCU: 0x96F0, offset: 0x9FCA, size: 0x8, addend: 0x0, symName: __ZNKSt3__119ostreambuf_iteratorIcNS_11char_traitsIcEEE6failedB7v160006Ev, symObjAddr: 0xB50, symBinAddr: 0x100002FF8, symSize: 0x24 }
  - { offsetInCU: 0x9715, offset: 0x9FEF, size: 0x8, addend: 0x0, symName: __ZNSt3__19basic_iosIcNS_11char_traitsIcEEE8setstateB7v160006Ej, symObjAddr: 0xB74, symBinAddr: 0x10000301C, symSize: 0x2C }
  - { offsetInCU: 0x9749, offset: 0xA023, size: 0x8, addend: 0x0, symName: __ZNKSt3__18ios_base5widthB7v160006Ev, symObjAddr: 0xBA0, symBinAddr: 0x100003048, symSize: 0x18 }
  - { offsetInCU: 0x9770, offset: 0xA04A, size: 0x8, addend: 0x0, symName: __ZNSt3__115basic_streambufIcNS_11char_traitsIcEEE5sputnB7v160006EPKcl, symObjAddr: 0xBB8, symBinAddr: 0x100003060, symSize: 0x3C }
  - { offsetInCU: 0x97B1, offset: 0xA08B, size: 0x8, addend: 0x0, symName: __ZNSt3__112basic_stringIcNS_11char_traitsIcEENS_9allocatorIcEEEC1B7v160006Emc, symObjAddr: 0xBF4, symBinAddr: 0x10000309C, symSize: 0x3C }
  - { offsetInCU: 0x97F8, offset: 0xA0D2, size: 0x8, addend: 0x0, symName: __ZNKSt3__112basic_stringIcNS_11char_traitsIcEENS_9allocatorIcEEE4dataB7v160006Ev, symObjAddr: 0xC30, symBinAddr: 0x1000030D8, symSize: 0x28 }
  - { offsetInCU: 0x981D, offset: 0xA0F7, size: 0x8, addend: 0x0, symName: __ZNSt3__18ios_base5widthB7v160006El, symObjAddr: 0xC58, symBinAddr: 0x100003100, symSize: 0x2C }
  - { offsetInCU: 0x9862, offset: 0xA13C, size: 0x8, addend: 0x0, symName: __ZNSt3__112basic_stringIcNS_11char_traitsIcEENS_9allocatorIcEEEC2B7v160006Emc, symObjAddr: 0xC84, symBinAddr: 0x10000312C, symSize: 0x54 }
  - { offsetInCU: 0x98AE, offset: 0xA188, size: 0x8, addend: 0x0, symName: __ZNSt3__117__compressed_pairINS_12basic_stringIcNS_11char_traitsIcEENS_9allocatorIcEEE5__repES5_EC1B7v160006INS_18__default_init_tagESA_EEOT_OT0_, symObjAddr: 0xCD8, symBinAddr: 0x100003180, symSize: 0x3C }
  - { offsetInCU: 0x9905, offset: 0xA1DF, size: 0x8, addend: 0x0, symName: __ZNSt3__117__compressed_pairINS_12basic_stringIcNS_11char_traitsIcEENS_9allocatorIcEEE5__repES5_EC2B7v160006INS_18__default_init_tagESA_EEOT_OT0_, symObjAddr: 0xD24, symBinAddr: 0x1000031CC, symSize: 0x3C }
  - { offsetInCU: 0x995C, offset: 0xA236, size: 0x8, addend: 0x0, symName: __ZNSt3__122__compressed_pair_elemINS_12basic_stringIcNS_11char_traitsIcEENS_9allocatorIcEEE5__repELi0ELb0EEC2B7v160006ENS_18__default_init_tagE, symObjAddr: 0xD60, symBinAddr: 0x100003208, symSize: 0x14 }
  - { offsetInCU: 0x9990, offset: 0xA26A, size: 0x8, addend: 0x0, symName: __ZNSt3__122__compressed_pair_elemINS_9allocatorIcEELi1ELb1EEC2B7v160006ENS_18__default_init_tagE, symObjAddr: 0xD74, symBinAddr: 0x10000321C, symSize: 0x2C }
  - { offsetInCU: 0x99C4, offset: 0xA29E, size: 0x8, addend: 0x0, symName: __ZNSt3__19allocatorIcEC2B7v160006Ev, symObjAddr: 0xDA0, symBinAddr: 0x100003248, symSize: 0x2C }
  - { offsetInCU: 0x99ED, offset: 0xA2C7, size: 0x8, addend: 0x0, symName: __ZNSt3__116__non_trivial_ifILb1ENS_9allocatorIcEEEC2B7v160006Ev, symObjAddr: 0xDCC, symBinAddr: 0x100003274, symSize: 0x14 }
  - { offsetInCU: 0x9A16, offset: 0xA2F0, size: 0x8, addend: 0x0, symName: __ZNKSt3__112basic_stringIcNS_11char_traitsIcEENS_9allocatorIcEEE13__get_pointerB7v160006Ev, symObjAddr: 0xDF4, symBinAddr: 0x10000329C, symSize: 0x54 }
  - { offsetInCU: 0x9A3B, offset: 0xA315, size: 0x8, addend: 0x0, symName: __ZNKSt3__112basic_stringIcNS_11char_traitsIcEENS_9allocatorIcEEE9__is_longB7v160006Ev, symObjAddr: 0xE48, symBinAddr: 0x1000032F0, symSize: 0x74 }
  - { offsetInCU: 0x9A60, offset: 0xA33A, size: 0x8, addend: 0x0, symName: __ZNKSt3__112basic_stringIcNS_11char_traitsIcEENS_9allocatorIcEEE18__get_long_pointerB7v160006Ev, symObjAddr: 0xEBC, symBinAddr: 0x100003364, symSize: 0x28 }
  - { offsetInCU: 0x9A85, offset: 0xA35F, size: 0x8, addend: 0x0, symName: __ZNKSt3__112basic_stringIcNS_11char_traitsIcEENS_9allocatorIcEEE19__get_short_pointerB7v160006Ev, symObjAddr: 0xEE4, symBinAddr: 0x10000338C, symSize: 0x28 }
  - { offsetInCU: 0x9AAA, offset: 0xA384, size: 0x8, addend: 0x0, symName: __ZNKSt3__117__compressed_pairINS_12basic_stringIcNS_11char_traitsIcEENS_9allocatorIcEEE5__repES5_E5firstB7v160006Ev, symObjAddr: 0xF18, symBinAddr: 0x1000033C0, symSize: 0x24 }
  - { offsetInCU: 0x9ACF, offset: 0xA3A9, size: 0x8, addend: 0x0, symName: __ZNKSt3__122__compressed_pair_elemINS_12basic_stringIcNS_11char_traitsIcEENS_9allocatorIcEEE5__repELi0ELb0EE5__getB7v160006Ev, symObjAddr: 0xF3C, symBinAddr: 0x1000033E4, symSize: 0x14 }
  - { offsetInCU: 0x9AF4, offset: 0xA3CE, size: 0x8, addend: 0x0, symName: __ZNSt3__114pointer_traitsIPKcE10pointer_toB7v160006ERS1_, symObjAddr: 0xF50, symBinAddr: 0x1000033F8, symSize: 0x14 }
  - { offsetInCU: 0x9B17, offset: 0xA3F1, size: 0x8, addend: 0x0, symName: __ZNSt3__119ostreambuf_iteratorIcNS_11char_traitsIcEEEC2B7v160006ERNS_13basic_ostreamIcS2_EE, symObjAddr: 0xF64, symBinAddr: 0x10000340C, symSize: 0x68 }
  - { offsetInCU: 0x9B4E, offset: 0xA428, size: 0x8, addend: 0x0, symName: __ZNKSt3__19basic_iosIcNS_11char_traitsIcEEE5rdbufB7v160006Ev, symObjAddr: 0xFCC, symBinAddr: 0x100003474, symSize: 0x24 }
  - { offsetInCU: 0x9B75, offset: 0xA44F, size: 0x8, addend: 0x0, symName: __ZNKSt3__18ios_base5rdbufB7v160006Ev, symObjAddr: 0xFF0, symBinAddr: 0x100003498, symSize: 0x18 }
  - { offsetInCU: 0x9B9A, offset: 0xA474, size: 0x8, addend: 0x0, symName: __ZNSt3__111char_traitsIcE11eq_int_typeEii, symObjAddr: 0x1008, symBinAddr: 0x1000034B0, symSize: 0x28 }
  - { offsetInCU: 0x9BCB, offset: 0xA4A5, size: 0x8, addend: 0x0, symName: __ZNSt3__111char_traitsIcE3eofEv, symObjAddr: 0x1030, symBinAddr: 0x1000034D8, symSize: 0x8 }
  - { offsetInCU: 0x9BDF, offset: 0xA4B9, size: 0x8, addend: 0x0, symName: __ZNKSt3__19basic_iosIcNS_11char_traitsIcEEE5widenB7v160006Ec, symObjAddr: 0x1038, symBinAddr: 0x1000034E0, symSize: 0x8C }
  - { offsetInCU: 0x9C4C, offset: 0xA526, size: 0x8, addend: 0x0, symName: __ZNKSt3__15ctypeIcE5widenB7v160006Ec, symObjAddr: 0x10F0, symBinAddr: 0x100003598, symSize: 0x38 }
  - { offsetInCU: 0x9C80, offset: 0xA55A, size: 0x8, addend: 0x0, symName: __ZNSt3__18ios_base8setstateB7v160006Ej, symObjAddr: 0x1128, symBinAddr: 0x1000035D0, symSize: 0x34 }
  - { offsetInCU: 0x9CB6, offset: 0xA590, size: 0x8, addend: 0x0, symName: __ZNSt3__16vectorI6SphereNS_9allocatorIS1_EEEC2ERKS4_, symObjAddr: 0x1180, symBinAddr: 0x100003628, symSize: 0x11C }
  - { offsetInCU: 0x9D1E, offset: 0xA5F8, size: 0x8, addend: 0x0, symName: __ZNSt3__116allocator_traitsINS_9allocatorI6SphereEEE37select_on_container_copy_constructionB7v160006IS3_vvEES3_RKS3_, symObjAddr: 0x129C, symBinAddr: 0x100003744, symSize: 0x10 }
  - { offsetInCU: 0x9D4D, offset: 0xA627, size: 0x8, addend: 0x0, symName: __ZNKSt3__16vectorI6SphereNS_9allocatorIS1_EEE7__allocB7v160006Ev, symObjAddr: 0x12AC, symBinAddr: 0x100003754, symSize: 0x28 }
  - { offsetInCU: 0x9D7C, offset: 0xA656, size: 0x8, addend: 0x0, symName: __ZNSt3__117__compressed_pairIP6SphereNS_9allocatorIS1_EEEC1B7v160006IDnS4_EEOT_OT0_, symObjAddr: 0x12D4, symBinAddr: 0x10000377C, symSize: 0x3C }
  - { offsetInCU: 0x9DD3, offset: 0xA6AD, size: 0x8, addend: 0x0, symName: __ZNSt3__16vectorI6SphereNS_9allocatorIS1_EEE16__destroy_vectorC1ERS4_, symObjAddr: 0x1350, symBinAddr: 0x1000037F8, symSize: 0x34 }
  - { offsetInCU: 0x9E0B, offset: 0xA6E5, size: 0x8, addend: 0x0, symName: __ZNKSt3__16vectorI6SphereNS_9allocatorIS1_EEE4sizeB7v160006Ev, symObjAddr: 0x1394, symBinAddr: 0x10000383C, symSize: 0x28 }
  - { offsetInCU: 0x9E30, offset: 0xA70A, size: 0x8, addend: 0x0, symName: __ZNSt3__16vectorI6SphereNS_9allocatorIS1_EEE11__vallocateB7v160006Em, symObjAddr: 0x13BC, symBinAddr: 0x100003864, symSize: 0xB4 }
  - { offsetInCU: 0x9E73, offset: 0xA74D, size: 0x8, addend: 0x0, symName: __ZNSt3__16vectorI6SphereNS_9allocatorIS1_EEE18__construct_at_endIPS1_Li0EEEvT_S7_m, symObjAddr: 0x1470, symBinAddr: 0x100003918, symSize: 0x94 }
  - { offsetInCU: 0x9EE5, offset: 0xA7BF, size: 0x8, addend: 0x0, symName: __ZNSt3__128__exception_guard_exceptionsINS_6vectorI6SphereNS_9allocatorIS2_EEE16__destroy_vectorEE10__completeB7v160006Ev, symObjAddr: 0x1504, symBinAddr: 0x1000039AC, symSize: 0x1C }
  - { offsetInCU: 0x9F0A, offset: 0xA7E4, size: 0x8, addend: 0x0, symName: __ZNSt3__128__exception_guard_exceptionsINS_6vectorI6SphereNS_9allocatorIS2_EEE16__destroy_vectorEED1B7v160006Ev, symObjAddr: 0x1520, symBinAddr: 0x1000039C8, symSize: 0x2C }
  - { offsetInCU: 0x9F33, offset: 0xA80D, size: 0x8, addend: 0x0, symName: __ZNKSt3__117__compressed_pairIP6SphereNS_9allocatorIS1_EEE6secondB7v160006Ev, symObjAddr: 0x154C, symBinAddr: 0x1000039F4, symSize: 0x24 }
  - { offsetInCU: 0x9F58, offset: 0xA832, size: 0x8, addend: 0x0, symName: __ZNKSt3__122__compressed_pair_elemINS_9allocatorI6SphereEELi1ELb1EE5__getB7v160006Ev, symObjAddr: 0x1570, symBinAddr: 0x100003A18, symSize: 0x14 }
  - { offsetInCU: 0x9F7D, offset: 0xA857, size: 0x8, addend: 0x0, symName: __ZNSt3__117__compressed_pairIP6SphereNS_9allocatorIS1_EEEC2B7v160006IDnS4_EEOT_OT0_, symObjAddr: 0x1584, symBinAddr: 0x100003A2C, symSize: 0x44 }
  - { offsetInCU: 0x9FD4, offset: 0xA8AE, size: 0x8, addend: 0x0, symName: __ZNSt3__122__compressed_pair_elemIP6SphereLi0ELb0EEC2B7v160006IDnvEEOT_, symObjAddr: 0x15C8, symBinAddr: 0x100003A70, symSize: 0x1C }
  - { offsetInCU: 0xA015, offset: 0xA8EF, size: 0x8, addend: 0x0, symName: __ZNSt3__122__compressed_pair_elemINS_9allocatorI6SphereEELi1ELb1EEC2B7v160006IS3_vEEOT_, symObjAddr: 0x15E4, symBinAddr: 0x100003A8C, symSize: 0x18 }
  - { offsetInCU: 0xA056, offset: 0xA930, size: 0x8, addend: 0x0, symName: __ZNSt3__128__exception_guard_exceptionsINS_6vectorI6SphereNS_9allocatorIS2_EEE16__destroy_vectorEEC1B7v160006ES6_, symObjAddr: 0x15FC, symBinAddr: 0x100003AA4, symSize: 0x34 }
  - { offsetInCU: 0xA08D, offset: 0xA967, size: 0x8, addend: 0x0, symName: __ZNSt3__128__exception_guard_exceptionsINS_6vectorI6SphereNS_9allocatorIS2_EEE16__destroy_vectorEEC2B7v160006ES6_, symObjAddr: 0x1630, symBinAddr: 0x100003AD8, symSize: 0x24 }
  - { offsetInCU: 0xA0C4, offset: 0xA99E, size: 0x8, addend: 0x0, symName: __ZNSt3__16vectorI6SphereNS_9allocatorIS1_EEE16__destroy_vectorC2ERS4_, symObjAddr: 0x1654, symBinAddr: 0x100003AFC, symSize: 0x20 }
  - { offsetInCU: 0xA0FC, offset: 0xA9D6, size: 0x8, addend: 0x0, symName: __ZNKSt3__16vectorI6SphereNS_9allocatorIS1_EEE8max_sizeEv, symObjAddr: 0x1674, symBinAddr: 0x100003B1C, symSize: 0x74 }
  - { offsetInCU: 0xA123, offset: 0xA9FD, size: 0x8, addend: 0x0, symName: __ZNKSt3__16vectorI6SphereNS_9allocatorIS1_EEE20__throw_length_errorB7v160006Ev, symObjAddr: 0x16E8, symBinAddr: 0x100003B90, symSize: 0x1C }
  - { offsetInCU: 0xA148, offset: 0xAA22, size: 0x8, addend: 0x0, symName: __ZNSt3__16vectorI6SphereNS_9allocatorIS1_EEE7__allocB7v160006Ev, symObjAddr: 0x1744, symBinAddr: 0x100003BEC, symSize: 0x28 }
  - { offsetInCU: 0xA16D, offset: 0xAA47, size: 0x8, addend: 0x0, symName: __ZNSt3__16vectorI6SphereNS_9allocatorIS1_EEE9__end_capB7v160006Ev, symObjAddr: 0x176C, symBinAddr: 0x100003C14, symSize: 0x28 }
  - { offsetInCU: 0xA192, offset: 0xAA6C, size: 0x8, addend: 0x0, symName: __ZNKSt3__16vectorI6SphereNS_9allocatorIS1_EEE14__annotate_newB7v160006Em, symObjAddr: 0x1794, symBinAddr: 0x100003C3C, symSize: 0xC8 }
  - { offsetInCU: 0xA1C6, offset: 0xAAA0, size: 0x8, addend: 0x0, symName: __ZNSt3__116allocator_traitsINS_9allocatorI6SphereEEE8max_sizeB7v160006IS3_vEEmRKS3_, symObjAddr: 0x1888, symBinAddr: 0x100003D30, symSize: 0x24 }
  - { offsetInCU: 0xA1F4, offset: 0xAACE, size: 0x8, addend: 0x0, symName: __ZNSt3__114numeric_limitsIlE3maxB7v160006Ev, symObjAddr: 0x18AC, symBinAddr: 0x100003D54, symSize: 0x14 }
  - { offsetInCU: 0xA21C, offset: 0xAAF6, size: 0x8, addend: 0x0, symName: __ZNKSt3__16__lessImmEclB7v160006ERKmS3_, symObjAddr: 0x1914, symBinAddr: 0x100003DBC, symSize: 0x34 }
  - { offsetInCU: 0xA25D, offset: 0xAB37, size: 0x8, addend: 0x0, symName: __ZNKSt3__19allocatorI6SphereE8max_sizeB7v160006Ev, symObjAddr: 0x1948, symBinAddr: 0x100003DF0, symSize: 0x18 }
  - { offsetInCU: 0xA282, offset: 0xAB5C, size: 0x8, addend: 0x0, symName: __ZNSt3__123__libcpp_numeric_limitsIlLb1EE3maxB7v160006Ev, symObjAddr: 0x1960, symBinAddr: 0x100003E08, symSize: 0x8 }
  - { offsetInCU: 0xA296, offset: 0xAB70, size: 0x8, addend: 0x0, symName: __ZNSt12length_errorC1B7v160006EPKc, symObjAddr: 0x19CC, symBinAddr: 0x100003E74, symSize: 0x34 }
  - { offsetInCU: 0xA2CD, offset: 0xABA7, size: 0x8, addend: 0x0, symName: __ZNSt12length_errorC2B7v160006EPKc, symObjAddr: 0x1A00, symBinAddr: 0x100003EA8, symSize: 0x4C }
  - { offsetInCU: 0xA304, offset: 0xABDE, size: 0x8, addend: 0x0, symName: __ZNSt3__19allocatorI6SphereE8allocateB7v160006Em, symObjAddr: 0x1A4C, symBinAddr: 0x100003EF4, symSize: 0x8C }
  - { offsetInCU: 0xA337, offset: 0xAC11, size: 0x8, addend: 0x0, symName: __ZNSt3__117__compressed_pairIP6SphereNS_9allocatorIS1_EEE6secondB7v160006Ev, symObjAddr: 0x1B58, symBinAddr: 0x100004000, symSize: 0x24 }
  - { offsetInCU: 0xA35C, offset: 0xAC36, size: 0x8, addend: 0x0, symName: __ZNSt3__122__compressed_pair_elemINS_9allocatorI6SphereEELi1ELb1EE5__getB7v160006Ev, symObjAddr: 0x1B7C, symBinAddr: 0x100004024, symSize: 0x14 }
  - { offsetInCU: 0xA381, offset: 0xAC5B, size: 0x8, addend: 0x0, symName: __ZNSt3__117__compressed_pairIP6SphereNS_9allocatorIS1_EEE5firstB7v160006Ev, symObjAddr: 0x1B90, symBinAddr: 0x100004038, symSize: 0x24 }
  - { offsetInCU: 0xA3A6, offset: 0xAC80, size: 0x8, addend: 0x0, symName: __ZNSt3__122__compressed_pair_elemIP6SphereLi0ELb0EE5__getB7v160006Ev, symObjAddr: 0x1BB4, symBinAddr: 0x10000405C, symSize: 0x14 }
  - { offsetInCU: 0xA3CB, offset: 0xACA5, size: 0x8, addend: 0x0, symName: __ZNKSt3__16vectorI6SphereNS_9allocatorIS1_EEE31__annotate_contiguous_containerB7v160006EPKvS6_S6_S6_, symObjAddr: 0x1BC8, symBinAddr: 0x100004070, symSize: 0x20 }
  - { offsetInCU: 0xA420, offset: 0xACFA, size: 0x8, addend: 0x0, symName: __ZNKSt3__16vectorI6SphereNS_9allocatorIS1_EEE4dataB7v160006Ev, symObjAddr: 0x1BE8, symBinAddr: 0x100004090, symSize: 0x28 }
  - { offsetInCU: 0xA445, offset: 0xAD1F, size: 0x8, addend: 0x0, symName: __ZNKSt3__16vectorI6SphereNS_9allocatorIS1_EEE8capacityB7v160006Ev, symObjAddr: 0x1C10, symBinAddr: 0x1000040B8, symSize: 0x40 }
  - { offsetInCU: 0xA46A, offset: 0xAD44, size: 0x8, addend: 0x0, symName: __ZNKSt3__16vectorI6SphereNS_9allocatorIS1_EEE9__end_capB7v160006Ev, symObjAddr: 0x1C64, symBinAddr: 0x10000410C, symSize: 0x28 }
  - { offsetInCU: 0xA48F, offset: 0xAD69, size: 0x8, addend: 0x0, symName: __ZNKSt3__117__compressed_pairIP6SphereNS_9allocatorIS1_EEE5firstB7v160006Ev, symObjAddr: 0x1C8C, symBinAddr: 0x100004134, symSize: 0x24 }
  - { offsetInCU: 0xA4B4, offset: 0xAD8E, size: 0x8, addend: 0x0, symName: __ZNKSt3__122__compressed_pair_elemIP6SphereLi0ELb0EE5__getB7v160006Ev, symObjAddr: 0x1CB0, symBinAddr: 0x100004158, symSize: 0x14 }
  - { offsetInCU: 0xA4F2, offset: 0xADCC, size: 0x8, addend: 0x0, symName: __ZNSt3__16vectorI6SphereNS_9allocatorIS1_EEE21_ConstructTransactionC1B7v160006ERS4_m, symObjAddr: 0x1CC4, symBinAddr: 0x10000416C, symSize: 0x3C }
  - { offsetInCU: 0xA539, offset: 0xAE13, size: 0x8, addend: 0x0, symName: __ZNSt3__16vectorI6SphereNS_9allocatorIS1_EEE21_ConstructTransactionD1B7v160006Ev, symObjAddr: 0x1DFC, symBinAddr: 0x1000042A4, symSize: 0x2C }
  - { offsetInCU: 0xA562, offset: 0xAE3C, size: 0x8, addend: 0x0, symName: __ZNSt3__16vectorI6SphereNS_9allocatorIS1_EEE21_ConstructTransactionC2B7v160006ERS4_m, symObjAddr: 0x1E28, symBinAddr: 0x1000042D0, symSize: 0x4C }
  - { offsetInCU: 0xA5A9, offset: 0xAE83, size: 0x8, addend: 0x0, symName: __ZNSt3__129_AllocatorDestroyRangeReverseINS_9allocatorI6SphereEEPS2_EC1B7v160006ERS3_RS4_S7_, symObjAddr: 0x1EC0, symBinAddr: 0x100004368, symSize: 0x44 }
  - { offsetInCU: 0xA5FF, offset: 0xAED9, size: 0x8, addend: 0x0, symName: __ZNSt3__116allocator_traitsINS_9allocatorI6SphereEEE9constructB7v160006IS2_JRS2_EvEEvRS3_PT_DpOT0_, symObjAddr: 0x1F04, symBinAddr: 0x1000043AC, symSize: 0x34 }
  - { offsetInCU: 0xA656, offset: 0xAF30, size: 0x8, addend: 0x0, symName: __ZNSt3__128__exception_guard_exceptionsINS_29_AllocatorDestroyRangeReverseINS_9allocatorI6SphereEEPS3_EEE10__completeB7v160006Ev, symObjAddr: 0x1F38, symBinAddr: 0x1000043E0, symSize: 0x1C }
  - { offsetInCU: 0xA67B, offset: 0xAF55, size: 0x8, addend: 0x0, symName: __ZNSt3__128__exception_guard_exceptionsINS_29_AllocatorDestroyRangeReverseINS_9allocatorI6SphereEEPS3_EEED1B7v160006Ev, symObjAddr: 0x1F54, symBinAddr: 0x1000043FC, symSize: 0x2C }
  - { offsetInCU: 0xA6A4, offset: 0xAF7E, size: 0x8, addend: 0x0, symName: __ZNSt3__128__exception_guard_exceptionsINS_29_AllocatorDestroyRangeReverseINS_9allocatorI6SphereEEPS3_EEEC1B7v160006ES6_, symObjAddr: 0x1F80, symBinAddr: 0x100004428, symSize: 0x34 }
  - { offsetInCU: 0xA6DC, offset: 0xAFB6, size: 0x8, addend: 0x0, symName: __ZNSt3__128__exception_guard_exceptionsINS_29_AllocatorDestroyRangeReverseINS_9allocatorI6SphereEEPS3_EEEC2B7v160006ES6_, symObjAddr: 0x1FB4, symBinAddr: 0x10000445C, symSize: 0x30 }
  - { offsetInCU: 0xA714, offset: 0xAFEE, size: 0x8, addend: 0x0, symName: __ZNSt3__129_AllocatorDestroyRangeReverseINS_9allocatorI6SphereEEPS2_EC2B7v160006ERS3_RS4_S7_, symObjAddr: 0x1FE4, symBinAddr: 0x10000448C, symSize: 0x38 }
  - { offsetInCU: 0xA76A, offset: 0xB044, size: 0x8, addend: 0x0, symName: __ZNSt3__19allocatorI6SphereE9constructB7v160006IS1_JRS1_EEEvPT_DpOT0_, symObjAddr: 0x201C, symBinAddr: 0x1000044C4, symSize: 0x34 }
  - { offsetInCU: 0xA7BF, offset: 0xB099, size: 0x8, addend: 0x0, symName: __ZNSt3__128__exception_guard_exceptionsINS_29_AllocatorDestroyRangeReverseINS_9allocatorI6SphereEEPS3_EEED2B7v160006Ev, symObjAddr: 0x2050, symBinAddr: 0x1000044F8, symSize: 0x48 }
  - { offsetInCU: 0xA7E8, offset: 0xB0C2, size: 0x8, addend: 0x0, symName: __ZNKSt3__129_AllocatorDestroyRangeReverseINS_9allocatorI6SphereEEPS2_EclB7v160006Ev, symObjAddr: 0x2098, symBinAddr: 0x100004540, symSize: 0x68 }
  - { offsetInCU: 0xA80D, offset: 0xB0E7, size: 0x8, addend: 0x0, symName: __ZNSt3__116reverse_iteratorIP6SphereEC1B7v160006ES2_, symObjAddr: 0x2170, symBinAddr: 0x100004618, symSize: 0x34 }
  - { offsetInCU: 0xA844, offset: 0xB11E, size: 0x8, addend: 0x0, symName: __ZNSt3__116allocator_traitsINS_9allocatorI6SphereEEE7destroyB7v160006IS2_vEEvRS3_PT_, symObjAddr: 0x21EC, symBinAddr: 0x100004694, symSize: 0x2C }
  - { offsetInCU: 0xA881, offset: 0xB15B, size: 0x8, addend: 0x0, symName: __ZNSt3__116reverse_iteratorIP6SphereEppB7v160006Ev, symObjAddr: 0x223C, symBinAddr: 0x1000046E4, symSize: 0x20 }
  - { offsetInCU: 0xA8A6, offset: 0xB180, size: 0x8, addend: 0x0, symName: __ZNKSt3__116reverse_iteratorIP6SphereE4baseB7v160006Ev, symObjAddr: 0x225C, symBinAddr: 0x100004704, symSize: 0x18 }
  - { offsetInCU: 0xA8CB, offset: 0xB1A5, size: 0x8, addend: 0x0, symName: __ZNSt3__19allocatorI6SphereE7destroyB7v160006EPS1_, symObjAddr: 0x2274, symBinAddr: 0x10000471C, symSize: 0x14 }
  - { offsetInCU: 0xA903, offset: 0xB1DD, size: 0x8, addend: 0x0, symName: __ZNSt3__119__to_address_helperINS_16reverse_iteratorIP6SphereEEvE6__callB7v160006ERKS4_, symObjAddr: 0x2288, symBinAddr: 0x100004730, symSize: 0x4C }
  - { offsetInCU: 0xA926, offset: 0xB200, size: 0x8, addend: 0x0, symName: __ZNKSt3__116reverse_iteratorIP6SphereEptB7v160006Ev, symObjAddr: 0x22D4, symBinAddr: 0x10000477C, symSize: 0x24 }
  - { offsetInCU: 0xA94B, offset: 0xB225, size: 0x8, addend: 0x0, symName: __ZNKSt3__116reverse_iteratorIP6SphereEdeB7v160006Ev, symObjAddr: 0x22F8, symBinAddr: 0x1000047A0, symSize: 0x28 }
  - { offsetInCU: 0xA97F, offset: 0xB259, size: 0x8, addend: 0x0, symName: __ZNSt3__116reverse_iteratorIP6SphereEC2B7v160006ES2_, symObjAddr: 0x2320, symBinAddr: 0x1000047C8, symSize: 0x28 }
  - { offsetInCU: 0xA9B6, offset: 0xB290, size: 0x8, addend: 0x0, symName: __ZNSt3__16vectorI6SphereNS_9allocatorIS1_EEE21_ConstructTransactionD2B7v160006Ev, symObjAddr: 0x2348, symBinAddr: 0x1000047F0, symSize: 0x20 }
  - { offsetInCU: 0xA9DF, offset: 0xB2B9, size: 0x8, addend: 0x0, symName: __ZNSt3__128__exception_guard_exceptionsINS_6vectorI6SphereNS_9allocatorIS2_EEE16__destroy_vectorEED2B7v160006Ev, symObjAddr: 0x2368, symBinAddr: 0x100004810, symSize: 0x48 }
  - { offsetInCU: 0xAA08, offset: 0xB2E2, size: 0x8, addend: 0x0, symName: __ZNSt3__16vectorI6SphereNS_9allocatorIS1_EEE16__destroy_vectorclB7v160006Ev, symObjAddr: 0x23B0, symBinAddr: 0x100004858, symSize: 0x9C }
  - { offsetInCU: 0xAA2D, offset: 0xB307, size: 0x8, addend: 0x0, symName: __ZNKSt3__16vectorI6SphereNS_9allocatorIS1_EEE17__annotate_deleteB7v160006Ev, symObjAddr: 0x244C, symBinAddr: 0x1000048F4, symSize: 0xD4 }
  - { offsetInCU: 0xAA52, offset: 0xB32C, size: 0x8, addend: 0x0, symName: __ZNSt3__16vectorI6SphereNS_9allocatorIS1_EEE7__clearB7v160006Ev, symObjAddr: 0x2530, symBinAddr: 0x1000049D8, symSize: 0x28 }
  - { offsetInCU: 0xAA77, offset: 0xB351, size: 0x8, addend: 0x0, symName: __ZNSt3__116allocator_traitsINS_9allocatorI6SphereEEE10deallocateB7v160006ERS3_PS2_m, symObjAddr: 0x2558, symBinAddr: 0x100004A00, symSize: 0x34 }
  - { offsetInCU: 0xAAB9, offset: 0xB393, size: 0x8, addend: 0x0, symName: __ZNSt3__16vectorI6SphereNS_9allocatorIS1_EEE22__base_destruct_at_endB7v160006EPS1_, symObjAddr: 0x258C, symBinAddr: 0x100004A34, symSize: 0xA0 }
  - { offsetInCU: 0xAAFC, offset: 0xB3D6, size: 0x8, addend: 0x0, symName: __ZNSt3__19allocatorI6SphereE10deallocateB7v160006EPS1_m, symObjAddr: 0x262C, symBinAddr: 0x100004AD4, symSize: 0x74 }
  - { offsetInCU: 0xAB3D, offset: 0xB417, size: 0x8, addend: 0x0, symName: __ZNSt3__16vectorI6SphereNS_9allocatorIS1_EEED2B7v160006Ev, symObjAddr: 0x271C, symBinAddr: 0x100004BC4, symSize: 0x3C }
  - { offsetInCU: 0x26, offset: 0xB514, size: 0x8, addend: 0x0, symName: __Z9drawSceneNSt3__16vectorI6SphereNS_9allocatorIS1_EEEER11PixelBufferiim, symObjAddr: 0x0, symBinAddr: 0x100004C00, symSize: 0x1A8 }
  - { offsetInCU: 0x3296, offset: 0xE784, size: 0x8, addend: 0x0, symName: __Z9drawSceneNSt3__16vectorI6SphereNS_9allocatorIS1_EEEER11PixelBufferiim, symObjAddr: 0x0, symBinAddr: 0x100004C00, symSize: 0x1A8 }
  - { offsetInCU: 0x339D, offset: 0xE88B, size: 0x8, addend: 0x0, symName: __Z3sinB7v160006f, symObjAddr: 0x1A8, symBinAddr: 0x100004DA8, symSize: 0x24 }
  - { offsetInCU: 0x3119, offset: 0x11A40, size: 0x8, addend: 0x0, symName: __ZN10SDLManagerC2Ev, symObjAddr: 0x0, symBinAddr: 0x100004DCC, symSize: 0x34 }
  - { offsetInCU: 0x3144, offset: 0x11A6B, size: 0x8, addend: 0x0, symName: __ZN10SDLManagerC1Ev, symObjAddr: 0x34, symBinAddr: 0x100004E00, symSize: 0x2C }
  - { offsetInCU: 0x316E, offset: 0x11A95, size: 0x8, addend: 0x0, symName: __ZN10SDLManagerD2Ev, symObjAddr: 0x60, symBinAddr: 0x100004E2C, symSize: 0xD0 }
  - { offsetInCU: 0x3198, offset: 0x11ABF, size: 0x8, addend: 0x0, symName: __ZN10SDLManagerD1Ev, symObjAddr: 0x130, symBinAddr: 0x100004EFC, symSize: 0x2C }
  - { offsetInCU: 0x31C2, offset: 0x11AE9, size: 0x8, addend: 0x0, symName: __ZN10SDLManager4initEv, symObjAddr: 0x15C, symBinAddr: 0x100004F28, symSize: 0x154 }
  - { offsetInCU: 0x31E8, offset: 0x11B0F, size: 0x8, addend: 0x0, symName: __ZN10SDLManager14createRendererEv, symObjAddr: 0x37C, symBinAddr: 0x10000507C, symSize: 0xB4 }
  - { offsetInCU: 0x320E, offset: 0x11B35, size: 0x8, addend: 0x0, symName: __ZN10SDLManager26createDoubleBufferTexturesEv, symObjAddr: 0x430, symBinAddr: 0x100005130, symSize: 0x150 }
  - { offsetInCU: 0x3234, offset: 0x11B5B, size: 0x8, addend: 0x0, symName: __ZN10SDLManager13processEventsEv, symObjAddr: 0x580, symBinAddr: 0x100005280, symSize: 0xBC }
  - { offsetInCU: 0x3269, offset: 0x11B90, size: 0x8, addend: 0x0, symName: __ZNK10SDLManager9getWindowEv, symObjAddr: 0x63C, symBinAddr: 0x10000533C, symSize: 0x18 }
  - { offsetInCU: 0x328F, offset: 0x11BB6, size: 0x8, addend: 0x0, symName: __ZNK10SDLManager21getFrontBufferTextureEv, symObjAddr: 0x654, symBinAddr: 0x100005354, symSize: 0x18 }
  - { offsetInCU: 0x32B5, offset: 0x11BDC, size: 0x8, addend: 0x0, symName: __ZNK10SDLManager20getBackBufferTextureEv, symObjAddr: 0x66C, symBinAddr: 0x10000536C, symSize: 0x18 }
  - { offsetInCU: 0x5D71, offset: 0x188EF, size: 0x8, addend: 0x0, symName: __ZNSt3__1lsB7v160006IcNS_11char_traitsIcEENS_9allocatorIcEEEERNS_13basic_ostreamIT_T0_EES9_RKNS_12basic_stringIS6_S7_T1_EE, symObjAddr: 0x460, symBinAddr: 0x1000057E4, symSize: 0x4C }
  - { offsetInCU: 0x5DD4, offset: 0x18952, size: 0x8, addend: 0x0, symName: __ZNSt3__13maxB7v160006ImEERKT_S3_S3_, symObjAddr: 0x23C8, symBinAddr: 0x100006318, symSize: 0x2C }
  - { offsetInCU: 0x5E17, offset: 0x18995, size: 0x8, addend: 0x0, symName: __ZNSt3__13maxB7v160006ImNS_6__lessImmEEEERKT_S5_S5_T0_, symObjAddr: 0x2644, symBinAddr: 0x100006344, symSize: 0x54 }
  - { offsetInCU: 0x5E71, offset: 0x189EF, size: 0x8, addend: 0x0, symName: __ZNSt3__142__uninitialized_allocator_move_if_noexceptB7v160006INS_9allocatorI6SphereEENS_16reverse_iteratorIPS2_EES6_S2_vEET1_RT_T0_SA_S7_, symObjAddr: 0x2A1C, symBinAddr: 0x1000065D0, symSize: 0xE8 }
  - { offsetInCU: 0x5EEF, offset: 0x18A6D, size: 0x8, addend: 0x0, symName: __ZNSt3__14swapB7v160006IP6SphereEEvRT_S4_, symObjAddr: 0x2B50, symBinAddr: 0x1000066B8, symSize: 0x3C }
  - { offsetInCU: 0x5F41, offset: 0x18ABF, size: 0x8, addend: 0x0, symName: __ZNSt3__125__debug_db_invalidate_allB7v160006INS_6vectorI6SphereNS_9allocatorIS2_EEEEEEvPT_, symObjAddr: 0x2C54, symBinAddr: 0x1000066F4, symSize: 0x10 }
  - { offsetInCU: 0x5F99, offset: 0x18B17, size: 0x8, addend: 0x0, symName: __ZNSt3__114__construct_atB7v160006I6SphereJS1_EPS1_EEPT_S4_DpOT0_, symObjAddr: 0x2CAC, symBinAddr: 0x100006704, symSize: 0x40 }
  - { offsetInCU: 0x600B, offset: 0x18B89, size: 0x8, addend: 0x0, symName: __ZNSt3__14moveB7v160006INS_16reverse_iteratorIP6SphereEES4_EET0_T_S6_S5_, symObjAddr: 0x2D58, symBinAddr: 0x100006744, symSize: 0x78 }
  - { offsetInCU: 0x6065, offset: 0x18BE3, size: 0x8, addend: 0x0, symName: __ZNSt3__16__moveB7v160006INS_17_ClassicAlgPolicyENS_16reverse_iteratorIP6SphereEES5_S5_EENS_4pairIT0_T2_EES7_T1_S8_, symObjAddr: 0x2E40, symBinAddr: 0x1000067BC, symSize: 0x64 }
  - { offsetInCU: 0x60D1, offset: 0x18C4F, size: 0x8, addend: 0x0, symName: __ZNSt3__123__dispatch_copy_or_moveB7v160006INS_17_ClassicAlgPolicyENS_11__move_loopIS1_EENS_14__move_trivialENS_16reverse_iteratorIP6SphereEES8_S8_EENS_4pairIT2_T4_EESA_T3_SB_, symObjAddr: 0x2EA4, symBinAddr: 0x100006820, symSize: 0x7C }
  - { offsetInCU: 0x614F, offset: 0x18CCD, size: 0x8, addend: 0x0, symName: __ZNSt3__121__unwrap_and_dispatchB7v160006INS_10__overloadINS_11__move_loopINS_17_ClassicAlgPolicyEEENS_14__move_trivialEEENS_16reverse_iteratorIP6SphereEESA_SA_Li0EEENS_4pairIT0_T2_EESC_T1_SD_, symObjAddr: 0x2F20, symBinAddr: 0x10000689C, symSize: 0x12C }
  - { offsetInCU: 0x61E1, offset: 0x18D5F, size: 0x8, addend: 0x0, symName: __ZNSt3__114__unwrap_rangeB7v160006INS_16reverse_iteratorIP6SphereEES4_EENS_4pairIT0_S6_EET_S8_, symObjAddr: 0x304C, symBinAddr: 0x1000069C8, symSize: 0x84 }
  - { offsetInCU: 0x6335, offset: 0x18EB3, size: 0x8, addend: 0x0, symName: __ZNSt3__113__unwrap_iterB7v160006INS_16reverse_iteratorIP6SphereEENS_18__unwrap_iter_implIS4_Lb0EEELi0EEEDTclsrT0_8__unwrapclsr3stdE7declvalIT_EEEES8_, symObjAddr: 0x316C, symBinAddr: 0x100006AE8, symSize: 0x44 }
  - { offsetInCU: 0x6379, offset: 0x18EF7, size: 0x8, addend: 0x0, symName: __ZNSt3__19make_pairB7v160006INS_16reverse_iteratorIP6SphereEES4_EENS_4pairINS_18__unwrap_ref_decayIT_E4typeENS6_IT0_E4typeEEEOS7_OSA_, symObjAddr: 0x31B0, symBinAddr: 0x100006B2C, symSize: 0x38 }
  - { offsetInCU: 0x63C8, offset: 0x18F46, size: 0x8, addend: 0x0, symName: __ZNSt3__114__rewrap_rangeB7v160006INS_16reverse_iteratorIP6SphereEES4_EET_S5_T0_, symObjAddr: 0x31E8, symBinAddr: 0x100006B64, symSize: 0x5C }
  - { offsetInCU: 0x6414, offset: 0x18F92, size: 0x8, addend: 0x0, symName: __ZNSt3__113__rewrap_iterB7v160006INS_16reverse_iteratorIP6SphereEES4_NS_18__unwrap_iter_implIS4_Lb0EEEEET_S7_T0_, symObjAddr: 0x3244, symBinAddr: 0x100006BC0, symSize: 0x88 }
  - { offsetInCU: 0x69A7, offset: 0x19525, size: 0x8, addend: 0x0, symName: __ZNSt3__16vectorI6SphereNS_9allocatorIS1_EEE26__swap_out_circular_bufferERNS_14__split_bufferIS1_RS3_EE, symObjAddr: 0x21F4, symBinAddr: 0x1000061D4, symSize: 0x118 }
  - { offsetInCU: 0x87C9, offset: 0x1B347, size: 0x8, addend: 0x0, symName: __Z19loadSpheresFromFileRKNSt3__112basic_stringIcNS_11char_traitsIcEENS_9allocatorIcEEEE, symObjAddr: 0x0, symBinAddr: 0x100005384, symSize: 0x28C }
  - { offsetInCU: 0x8897, offset: 0x1B415, size: 0x8, addend: 0x0, symName: __ZNSt3__16vectorI6SphereNS_9allocatorIS1_EEEC1B7v160006Ev, symObjAddr: 0x28C, symBinAddr: 0x100005610, symSize: 0x2C }
  - { offsetInCU: 0x89E1, offset: 0x1B55F, size: 0x8, addend: 0x0, symName: __ZNSt3__114basic_ifstreamIcNS_11char_traitsIcEEEC1ERKNS_12basic_stringIcS2_NS_9allocatorIcEEEEj, symObjAddr: 0x2B8, symBinAddr: 0x10000563C, symSize: 0x17C }
  - { offsetInCU: 0x8A2A, offset: 0x1B5A8, size: 0x8, addend: 0x0, symName: __ZNKSt3__114basic_ifstreamIcNS_11char_traitsIcEEE7is_openEv, symObjAddr: 0x434, symBinAddr: 0x1000057B8, symSize: 0x2C }
  - { offsetInCU: 0x8A51, offset: 0x1B5CF, size: 0x8, addend: 0x0, symName: __ZNKSt3__19basic_iosIcNS_11char_traitsIcEEEcvPvB7v160006Ev, symObjAddr: 0x578, symBinAddr: 0x100005830, symSize: 0x4C }
  - { offsetInCU: 0x8A76, offset: 0x1B5F4, size: 0x8, addend: 0x0, symName: __ZN6SphereC1Edddddd, symObjAddr: 0x5C4, symBinAddr: 0x10000587C, symSize: 0x5C }
  - { offsetInCU: 0x8AF3, offset: 0x1B671, size: 0x8, addend: 0x0, symName: __ZNSt3__16vectorI6SphereNS_9allocatorIS1_EEE9push_backB7v160006ERKS1_, symObjAddr: 0x620, symBinAddr: 0x1000058D8, symSize: 0x6C }
  - { offsetInCU: 0x8B29, offset: 0x1B6A7, size: 0x8, addend: 0x0, symName: __ZNSt3__114basic_ifstreamIcNS_11char_traitsIcEEE5closeEv, symObjAddr: 0x68C, symBinAddr: 0x100005944, symSize: 0x58 }
  - { offsetInCU: 0x8B55, offset: 0x1B6D3, size: 0x8, addend: 0x0, symName: __ZNSt3__114basic_ifstreamIcNS_11char_traitsIcEEED1Ev, symObjAddr: 0x6E4, symBinAddr: 0x10000599C, symSize: 0x70 }
  - { offsetInCU: 0x8B81, offset: 0x1B6FF, size: 0x8, addend: 0x0, symName: __ZN6SphereC2Edddddd, symObjAddr: 0x78C, symBinAddr: 0x100005A0C, symSize: 0x5C }
  - { offsetInCU: 0x8BFE, offset: 0x1B77C, size: 0x8, addend: 0x0, symName: __ZNSt3__114basic_ifstreamIcNS_11char_traitsIcEEED2Ev, symObjAddr: 0x7E8, symBinAddr: 0x100005A68, symSize: 0x9C }
  - { offsetInCU: 0x8C36, offset: 0x1B7B4, size: 0x8, addend: 0x0, symName: __ZTv0_n24_NSt3__114basic_ifstreamIcNS_11char_traitsIcEEED1Ev, symObjAddr: 0x884, symBinAddr: 0x100005B04, symSize: 0x28 }
  - { offsetInCU: 0x8C4D, offset: 0x1B7CB, size: 0x8, addend: 0x0, symName: __ZNSt3__16vectorI6SphereNS_9allocatorIS1_EEEC2B7v160006Ev, symObjAddr: 0x8AC, symBinAddr: 0x100005B2C, symSize: 0x4C }
  - { offsetInCU: 0x8C80, offset: 0x1B7FE, size: 0x8, addend: 0x0, symName: __ZNSt3__117__compressed_pairIP6SphereNS_9allocatorIS1_EEEC1B7v160006IDnNS_18__default_init_tagEEEOT_OT0_, symObjAddr: 0x8F8, symBinAddr: 0x100005B78, symSize: 0x3C }
  - { offsetInCU: 0x8CD7, offset: 0x1B855, size: 0x8, addend: 0x0, symName: __ZNSt3__117__compressed_pairIP6SphereNS_9allocatorIS1_EEEC2B7v160006IDnNS_18__default_init_tagEEEOT_OT0_, symObjAddr: 0x944, symBinAddr: 0x100005BB4, symSize: 0x40 }
  - { offsetInCU: 0x8D2E, offset: 0x1B8AC, size: 0x8, addend: 0x0, symName: __ZNSt3__122__compressed_pair_elemINS_9allocatorI6SphereEELi1ELb1EEC2B7v160006ENS_18__default_init_tagE, symObjAddr: 0x9A0, symBinAddr: 0x100005BF4, symSize: 0x2C }
  - { offsetInCU: 0x8D62, offset: 0x1B8E0, size: 0x8, addend: 0x0, symName: __ZNSt3__19allocatorI6SphereEC2B7v160006Ev, symObjAddr: 0x9CC, symBinAddr: 0x100005C20, symSize: 0x2C }
  - { offsetInCU: 0x8D8B, offset: 0x1B909, size: 0x8, addend: 0x0, symName: __ZNSt3__116__non_trivial_ifILb1ENS_9allocatorI6SphereEEEC2B7v160006Ev, symObjAddr: 0x9F8, symBinAddr: 0x100005C4C, symSize: 0x14 }
  - { offsetInCU: 0x8DB4, offset: 0x1B932, size: 0x8, addend: 0x0, symName: __ZNSt3__19basic_iosIcNS_11char_traitsIcEEEC2B7v160006Ev, symObjAddr: 0xFD8, symBinAddr: 0x100005C60, symSize: 0x44 }
  - { offsetInCU: 0x8DDD, offset: 0x1B95B, size: 0x8, addend: 0x0, symName: __ZNSt3__113basic_istreamIcNS_11char_traitsIcEEEC2B7v160006EPNS_15basic_streambufIcS2_EE, symObjAddr: 0x101C, symBinAddr: 0x100005CA4, symSize: 0x64 }
  - { offsetInCU: 0x8E20, offset: 0x1B99E, size: 0x8, addend: 0x0, symName: __ZNSt3__113basic_filebufIcNS_11char_traitsIcEEE4openERKNS_12basic_stringIcS2_NS_9allocatorIcEEEEj, symObjAddr: 0x1080, symBinAddr: 0x100005D08, symSize: 0x44 }
  - { offsetInCU: 0x8E63, offset: 0x1B9E1, size: 0x8, addend: 0x0, symName: __ZNSt3__18ios_baseC2B7v160006Ev, symObjAddr: 0x10F0, symBinAddr: 0x100005D4C, symSize: 0x24 }
  - { offsetInCU: 0x8E8C, offset: 0x1BA0A, size: 0x8, addend: 0x0, symName: __ZNSt3__19basic_iosIcNS_11char_traitsIcEEE4initB7v160006EPNS_15basic_streambufIcS2_EE, symObjAddr: 0x1114, symBinAddr: 0x100005D70, symSize: 0x44 }
  - { offsetInCU: 0x8EC2, offset: 0x1BA40, size: 0x8, addend: 0x0, symName: __ZNKSt3__112basic_stringIcNS_11char_traitsIcEENS_9allocatorIcEEE5c_strB7v160006Ev, symObjAddr: 0x1160, symBinAddr: 0x100005DB4, symSize: 0x24 }
  - { offsetInCU: 0x8EE7, offset: 0x1BA65, size: 0x8, addend: 0x0, symName: __ZNKSt3__113basic_filebufIcNS_11char_traitsIcEEE7is_openEv, symObjAddr: 0x1358, symBinAddr: 0x100005DD8, symSize: 0x24 }
  - { offsetInCU: 0x8F2C, offset: 0x1BAAA, size: 0x8, addend: 0x0, symName: __ZNKSt3__112basic_stringIcNS_11char_traitsIcEENS_9allocatorIcEEE4sizeB7v160006Ev, symObjAddr: 0x1CE8, symBinAddr: 0x100005DFC, symSize: 0x54 }
  - { offsetInCU: 0x8F51, offset: 0x1BACF, size: 0x8, addend: 0x0, symName: __ZNKSt3__112basic_stringIcNS_11char_traitsIcEENS_9allocatorIcEEE15__get_long_sizeB7v160006Ev, symObjAddr: 0x1D3C, symBinAddr: 0x100005E50, symSize: 0x28 }
  - { offsetInCU: 0x8F76, offset: 0x1BAF4, size: 0x8, addend: 0x0, symName: __ZNKSt3__112basic_stringIcNS_11char_traitsIcEENS_9allocatorIcEEE16__get_short_sizeB7v160006Ev, symObjAddr: 0x1D64, symBinAddr: 0x100005E78, symSize: 0x34 }
  - { offsetInCU: 0x8F9B, offset: 0x1BB19, size: 0x8, addend: 0x0, symName: __ZNKSt3__19basic_iosIcNS_11char_traitsIcEEE4failB7v160006Ev, symObjAddr: 0x1D98, symBinAddr: 0x100005EAC, symSize: 0x28 }
  - { offsetInCU: 0x8FC0, offset: 0x1BB3E, size: 0x8, addend: 0x0, symName: __ZNKSt3__18ios_base4failB7v160006Ev, symObjAddr: 0x1DC0, symBinAddr: 0x100005ED4, symSize: 0x28 }
  - { offsetInCU: 0x8FE7, offset: 0x1BB65, size: 0x8, addend: 0x0, symName: __ZNSt3__16vectorI6SphereNS_9allocatorIS1_EEE22__construct_one_at_endB7v160006IJRKS1_EEEvDpOT_, symObjAddr: 0x1E10, symBinAddr: 0x100005EFC, symSize: 0x98 }
  - { offsetInCU: 0x9035, offset: 0x1BBB3, size: 0x8, addend: 0x0, symName: __ZNSt3__16vectorI6SphereNS_9allocatorIS1_EEE21__push_back_slow_pathIRKS1_EEvOT_, symObjAddr: 0x1EA8, symBinAddr: 0x100005F94, symSize: 0xE0 }
  - { offsetInCU: 0x90AB, offset: 0x1BC29, size: 0x8, addend: 0x0, symName: __ZNSt3__116allocator_traitsINS_9allocatorI6SphereEEE9constructB7v160006IS2_JRKS2_EvEEvRS3_PT_DpOT0_, symObjAddr: 0x1FFC, symBinAddr: 0x100006074, symSize: 0x34 }
  - { offsetInCU: 0x9102, offset: 0x1BC80, size: 0x8, addend: 0x0, symName: __ZNSt3__19allocatorI6SphereE9constructB7v160006IS1_JRKS1_EEEvPT_DpOT0_, symObjAddr: 0x20A8, symBinAddr: 0x1000060A8, symSize: 0x34 }
  - { offsetInCU: 0x9157, offset: 0x1BCD5, size: 0x8, addend: 0x0, symName: __ZNKSt3__16vectorI6SphereNS_9allocatorIS1_EEE11__recommendB7v160006Em, symObjAddr: 0x20FC, symBinAddr: 0x1000060DC, symSize: 0xB4 }
  - { offsetInCU: 0x91AB, offset: 0x1BD29, size: 0x8, addend: 0x0, symName: __ZNSt3__114__split_bufferI6SphereRNS_9allocatorIS1_EEEC1EmmS4_, symObjAddr: 0x21B0, symBinAddr: 0x100006190, symSize: 0x44 }
  - { offsetInCU: 0x9200, offset: 0x1BD7E, size: 0x8, addend: 0x0, symName: __ZNSt3__114__split_bufferI6SphereRNS_9allocatorIS1_EEED1Ev, symObjAddr: 0x230C, symBinAddr: 0x1000062EC, symSize: 0x2C }
  - { offsetInCU: 0x923F, offset: 0x1BDBD, size: 0x8, addend: 0x0, symName: __ZNSt3__114__split_bufferI6SphereRNS_9allocatorIS1_EEEC2EmmS4_, symObjAddr: 0x2698, symBinAddr: 0x100006398, symSize: 0xE0 }
  - { offsetInCU: 0x92B2, offset: 0x1BE30, size: 0x8, addend: 0x0, symName: __ZNSt3__117__compressed_pairIP6SphereRNS_9allocatorIS1_EEEC1B7v160006IDnS5_EEOT_OT0_, symObjAddr: 0x2778, symBinAddr: 0x100006478, symSize: 0x3C }
  - { offsetInCU: 0x9309, offset: 0x1BE87, size: 0x8, addend: 0x0, symName: __ZNSt3__114__split_bufferI6SphereRNS_9allocatorIS1_EEE7__allocB7v160006Ev, symObjAddr: 0x27F4, symBinAddr: 0x1000064B4, symSize: 0x28 }
  - { offsetInCU: 0x932E, offset: 0x1BEAC, size: 0x8, addend: 0x0, symName: __ZNSt3__114__split_bufferI6SphereRNS_9allocatorIS1_EEE9__end_capB7v160006Ev, symObjAddr: 0x281C, symBinAddr: 0x1000064DC, symSize: 0x28 }
  - { offsetInCU: 0x9353, offset: 0x1BED1, size: 0x8, addend: 0x0, symName: __ZNSt3__117__compressed_pairIP6SphereRNS_9allocatorIS1_EEEC2B7v160006IDnS5_EEOT_OT0_, symObjAddr: 0x2844, symBinAddr: 0x100006504, symSize: 0x48 }
  - { offsetInCU: 0x93AA, offset: 0x1BF28, size: 0x8, addend: 0x0, symName: __ZNSt3__122__compressed_pair_elemIRNS_9allocatorI6SphereEELi1ELb0EEC2B7v160006IS4_vEEOT_, symObjAddr: 0x288C, symBinAddr: 0x10000654C, symSize: 0x20 }
  - { offsetInCU: 0x93EB, offset: 0x1BF69, size: 0x8, addend: 0x0, symName: __ZNSt3__117__compressed_pairIP6SphereRNS_9allocatorIS1_EEE6secondB7v160006Ev, symObjAddr: 0x29B8, symBinAddr: 0x10000656C, symSize: 0x28 }
  - { offsetInCU: 0x9410, offset: 0x1BF8E, size: 0x8, addend: 0x0, symName: __ZNSt3__122__compressed_pair_elemIRNS_9allocatorI6SphereEELi1ELb0EE5__getB7v160006Ev, symObjAddr: 0x29E0, symBinAddr: 0x100006594, symSize: 0x18 }
  - { offsetInCU: 0x9435, offset: 0x1BFB3, size: 0x8, addend: 0x0, symName: __ZNSt3__117__compressed_pairIP6SphereRNS_9allocatorIS1_EEE5firstB7v160006Ev, symObjAddr: 0x29F8, symBinAddr: 0x1000065AC, symSize: 0x24 }
  - { offsetInCU: 0x9482, offset: 0x1C000, size: 0x8, addend: 0x0, symName: __ZNKSt3__111__move_loopINS_17_ClassicAlgPolicyEEclB7v160006INS_16reverse_iteratorIP6SphereEES7_S7_EENS_4pairIT_T1_EES9_T0_SA_, symObjAddr: 0x30D0, symBinAddr: 0x100006A4C, symSize: 0x9C }
  - { offsetInCU: 0x94F1, offset: 0x1C06F, size: 0x8, addend: 0x0, symName: __ZNSt3__18_IterOpsINS_17_ClassicAlgPolicyEE11__iter_moveB7v160006IRNS_16reverse_iteratorIP6SphereEEEENS_9enable_ifIXsr12is_referenceIDTdeclsr3stdE7declvalIRT_EEEEE5valueEDTclsr3stdE4movedeclsr3stdE7declvalISB_EEEEE4typeEOSA_, symObjAddr: 0x32CC, symBinAddr: 0x100006C48, symSize: 0x28 }
  - { offsetInCU: 0x951D, offset: 0x1C09B, size: 0x8, addend: 0x0, symName: __ZNSt3__18_IterOpsINS_17_ClassicAlgPolicyEE25__validate_iter_referenceB7v160006IRNS_16reverse_iteratorIP6SphereEEEEvv, symObjAddr: 0x32F4, symBinAddr: 0x100006C70, symSize: 0x4 }
  - { offsetInCU: 0x953B, offset: 0x1C0B9, size: 0x8, addend: 0x0, symName: __ZNSt3__118__unwrap_iter_implINS_16reverse_iteratorIP6SphereEELb0EE8__unwrapB7v160006ES4_, symObjAddr: 0x32F8, symBinAddr: 0x100006C74, symSize: 0x24 }
  - { offsetInCU: 0x955E, offset: 0x1C0DC, size: 0x8, addend: 0x0, symName: __ZNSt3__14pairINS_16reverse_iteratorIP6SphereEES4_EC1B7v160006ERKS4_S7_, symObjAddr: 0x331C, symBinAddr: 0x100006C98, symSize: 0x3C }
  - { offsetInCU: 0x95A3, offset: 0x1C121, size: 0x8, addend: 0x0, symName: __ZNSt3__14pairINS_16reverse_iteratorIP6SphereEES4_EC2B7v160006ERKS4_S7_, symObjAddr: 0x3358, symBinAddr: 0x100006CD4, symSize: 0x34 }
  - { offsetInCU: 0x95E8, offset: 0x1C166, size: 0x8, addend: 0x0, symName: __ZNSt3__118__unwrap_iter_implINS_16reverse_iteratorIP6SphereEELb0EE8__rewrapB7v160006ES4_S4_, symObjAddr: 0x338C, symBinAddr: 0x100006D08, symSize: 0x2C }
  - { offsetInCU: 0x9616, offset: 0x1C194, size: 0x8, addend: 0x0, symName: __ZNSt3__114__split_bufferI6SphereRNS_9allocatorIS1_EEED2Ev, symObjAddr: 0x33E0, symBinAddr: 0x100006D34, symSize: 0x80 }
  - { offsetInCU: 0x9641, offset: 0x1C1BF, size: 0x8, addend: 0x0, symName: __ZNSt3__114__split_bufferI6SphereRNS_9allocatorIS1_EEE5clearB7v160006Ev, symObjAddr: 0x3460, symBinAddr: 0x100006DB4, symSize: 0x28 }
  - { offsetInCU: 0x9666, offset: 0x1C1E4, size: 0x8, addend: 0x0, symName: __ZNKSt3__114__split_bufferI6SphereRNS_9allocatorIS1_EEE8capacityB7v160006Ev, symObjAddr: 0x3488, symBinAddr: 0x100006DDC, symSize: 0x40 }
  - { offsetInCU: 0x968B, offset: 0x1C209, size: 0x8, addend: 0x0, symName: __ZNSt3__114__split_bufferI6SphereRNS_9allocatorIS1_EEE17__destruct_at_endB7v160006EPS1_, symObjAddr: 0x34C8, symBinAddr: 0x100006E1C, symSize: 0x2C }
  - { offsetInCU: 0x96BE, offset: 0x1C23C, size: 0x8, addend: 0x0, symName: __ZNSt3__114__split_bufferI6SphereRNS_9allocatorIS1_EEE17__destruct_at_endB7v160006EPS1_NS_17integral_constantIbLb0EEE, symObjAddr: 0x34F4, symBinAddr: 0x100006E48, symSize: 0x94 }
  - { offsetInCU: 0x96FE, offset: 0x1C27C, size: 0x8, addend: 0x0, symName: __ZNKSt3__114__split_bufferI6SphereRNS_9allocatorIS1_EEE9__end_capB7v160006Ev, symObjAddr: 0x3588, symBinAddr: 0x100006EDC, symSize: 0x28 }
  - { offsetInCU: 0x9723, offset: 0x1C2A1, size: 0x8, addend: 0x0, symName: __ZNKSt3__117__compressed_pairIP6SphereRNS_9allocatorIS1_EEE5firstB7v160006Ev, symObjAddr: 0x35B0, symBinAddr: 0x100006F04, symSize: 0x24 }
  - { offsetInCU: 0x5224, offset: 0x2154D, size: 0x8, addend: 0x0, symName: _main, symObjAddr: 0x0, symBinAddr: 0x100006F28, symSize: 0x2A4 }
  - { offsetInCU: 0x52AA, offset: 0x215D3, size: 0x8, addend: 0x0, symName: __ZNSt3__112basic_stringIcNS_11char_traitsIcEENS_9allocatorIcEEEC1B7v160006IDnEEPKc, symObjAddr: 0x2A4, symBinAddr: 0x1000071CC, symSize: 0x34 }
  - { offsetInCU: 0x52E7, offset: 0x21610, size: 0x8, addend: 0x0, symName: __ZNSt3__112basic_stringIcNS_11char_traitsIcEENS_9allocatorIcEEEC2B7v160006IDnEEPKc, symObjAddr: 0x344, symBinAddr: 0x100007200, symSize: 0x60 }
...
